target datalayout = "e-m:e-p270:32:32-p271:32:32-p272:64:64-i64:64-i128:128-f80:128-n8:16:32:64-S128"
target triple = "x86_64-pc-linux-gnu"

%struct.JNINativeInterface_ = type { ptr, ptr, ptr, ptr, ptr, ptr, ptr, ptr, ptr, ptr, ptr, ptr, ptr, ptr, ptr, ptr, ptr, ptr, ptr, ptr, ptr, ptr, ptr, ptr, ptr, ptr, ptr, ptr, ptr, ptr, ptr, ptr, ptr, ptr, ptr, ptr, ptr, ptr, ptr, ptr, ptr, ptr, ptr, ptr, ptr, ptr, ptr, ptr, ptr, ptr, ptr, ptr, ptr, ptr, ptr, ptr, ptr, ptr, ptr, ptr, ptr, ptr, ptr, ptr, ptr, ptr, ptr, ptr, ptr, ptr, ptr, ptr, ptr, ptr, ptr, ptr, ptr, ptr, ptr, ptr, ptr, ptr, ptr, ptr, ptr, ptr, ptr, ptr, ptr, ptr, ptr, ptr, ptr, ptr, ptr, ptr, ptr, ptr, ptr, ptr, ptr, ptr, ptr, ptr, ptr, ptr, ptr, ptr, ptr, ptr, ptr, ptr, ptr, ptr, ptr, ptr, ptr, ptr, ptr, ptr, ptr, ptr, ptr, ptr, ptr, ptr, ptr, ptr, ptr, ptr, ptr, ptr, ptr, ptr, ptr, ptr, ptr, ptr, ptr, ptr, ptr, ptr, ptr, ptr, ptr, ptr, ptr, ptr, ptr, ptr, ptr, ptr, ptr, ptr, ptr, ptr, ptr, ptr, ptr, ptr, ptr, ptr, ptr, ptr, ptr, ptr, ptr, ptr, ptr, ptr, ptr, ptr, ptr, ptr, ptr, ptr, ptr, ptr, ptr, ptr, ptr, ptr, ptr, ptr, ptr, ptr, ptr, ptr, ptr, ptr, ptr, ptr, ptr, ptr, ptr, ptr, ptr, ptr, ptr, ptr, ptr, ptr, ptr, ptr, ptr, ptr, ptr, ptr, ptr, ptr, ptr, ptr, ptr, ptr, ptr, ptr, ptr, ptr, ptr, ptr, ptr, ptr, ptr, ptr, ptr, ptr, ptr, ptr, ptr, ptr, ptr, ptr, ptr, ptr, ptr }
%struct.TransformInfo = type { double, double, double, double, double, double }

@m00ID = internal global ptr null, align 8
@m01ID = internal global ptr null, align 8
@m02ID = internal global ptr null, align 8
@m10ID = internal global ptr null, align 8
@m11ID = internal global ptr null, align 8
@m12ID = internal global ptr null, align 8

; Function Attrs: nounwind uwtable
define hidden void @Transform_GetInfo(ptr noundef %0, ptr noundef %1, ptr noundef %2) #0 {
  %4 = alloca ptr, align 8
  %5 = alloca ptr, align 8
  %6 = alloca ptr, align 8
  store ptr %0, ptr %4, align 8
  store ptr %1, ptr %5, align 8
  store ptr %2, ptr %6, align 8
  %7 = load ptr, ptr %4, align 8
  %8 = load ptr, ptr %7, align 8
  %9 = getelementptr inbounds %struct.JNINativeInterface_, ptr %8, i32 0, i32 103
  %10 = load ptr, ptr %9, align 8
  %11 = load ptr, ptr %4, align 8
  %12 = load ptr, ptr %5, align 8
  %13 = load ptr, ptr @m00ID, align 8
  %14 = call double %10(ptr noundef %11, ptr noundef %12, ptr noundef %13)
  %15 = load ptr, ptr %6, align 8
  %16 = getelementptr inbounds %struct.TransformInfo, ptr %15, i32 0, i32 0
  store double %14, ptr %16, align 8
  %17 = load ptr, ptr %4, align 8
  %18 = load ptr, ptr %17, align 8
  %19 = getelementptr inbounds %struct.JNINativeInterface_, ptr %18, i32 0, i32 103
  %20 = load ptr, ptr %19, align 8
  %21 = load ptr, ptr %4, align 8
  %22 = load ptr, ptr %5, align 8
  %23 = load ptr, ptr @m01ID, align 8
  %24 = call double %20(ptr noundef %21, ptr noundef %22, ptr noundef %23)
  %25 = load ptr, ptr %6, align 8
  %26 = getelementptr inbounds %struct.TransformInfo, ptr %25, i32 0, i32 1
  store double %24, ptr %26, align 8
  %27 = load ptr, ptr %4, align 8
  %28 = load ptr, ptr %27, align 8
  %29 = getelementptr inbounds %struct.JNINativeInterface_, ptr %28, i32 0, i32 103
  %30 = load ptr, ptr %29, align 8
  %31 = load ptr, ptr %4, align 8
  %32 = load ptr, ptr %5, align 8
  %33 = load ptr, ptr @m02ID, align 8
  %34 = call double %30(ptr noundef %31, ptr noundef %32, ptr noundef %33)
  %35 = load ptr, ptr %6, align 8
  %36 = getelementptr inbounds %struct.TransformInfo, ptr %35, i32 0, i32 2
  store double %34, ptr %36, align 8
  %37 = load ptr, ptr %4, align 8
  %38 = load ptr, ptr %37, align 8
  %39 = getelementptr inbounds %struct.JNINativeInterface_, ptr %38, i32 0, i32 103
  %40 = load ptr, ptr %39, align 8
  %41 = load ptr, ptr %4, align 8
  %42 = load ptr, ptr %5, align 8
  %43 = load ptr, ptr @m10ID, align 8
  %44 = call double %40(ptr noundef %41, ptr noundef %42, ptr noundef %43)
  %45 = load ptr, ptr %6, align 8
  %46 = getelementptr inbounds %struct.TransformInfo, ptr %45, i32 0, i32 3
  store double %44, ptr %46, align 8
  %47 = load ptr, ptr %4, align 8
  %48 = load ptr, ptr %47, align 8
  %49 = getelementptr inbounds %struct.JNINativeInterface_, ptr %48, i32 0, i32 103
  %50 = load ptr, ptr %49, align 8
  %51 = load ptr, ptr %4, align 8
  %52 = load ptr, ptr %5, align 8
  %53 = load ptr, ptr @m11ID, align 8
  %54 = call double %50(ptr noundef %51, ptr noundef %52, ptr noundef %53)
  %55 = load ptr, ptr %6, align 8
  %56 = getelementptr inbounds %struct.TransformInfo, ptr %55, i32 0, i32 4
  store double %54, ptr %56, align 8
  %57 = load ptr, ptr %4, align 8
  %58 = load ptr, ptr %57, align 8
  %59 = getelementptr inbounds %struct.JNINativeInterface_, ptr %58, i32 0, i32 103
  %60 = load ptr, ptr %59, align 8
  %61 = load ptr, ptr %4, align 8
  %62 = load ptr, ptr %5, align 8
  %63 = load ptr, ptr @m12ID, align 8
  %64 = call double %60(ptr noundef %61, ptr noundef %62, ptr noundef %63)
  %65 = load ptr, ptr %6, align 8
  %66 = getelementptr inbounds %struct.TransformInfo, ptr %65, i32 0, i32 5
  store double %64, ptr %66, align 8
  ret void
}