; Function Attrs: nounwind uwtable
define hidden void @Transform_GetInfo(ptr noundef %0, ptr noundef %1, ptr nocapture noundef writeonly %2) local_unnamed_addr #0 {
  %4 = load ptr, ptr %0, align 8
  %5 = getelementptr inbounds i8, ptr %4, i64 824
  %6 = load ptr, ptr %5, align 8
  %7 = load ptr, ptr @m00ID, align 8
  %8 = tail call double %6(ptr noundef nonnull %0, ptr noundef %1, ptr noundef %7) #6
  store double %8, ptr %2, align 8
  %9 = load ptr, ptr %0, align 8
  %10 = getelementptr inbounds i8, ptr %9, i64 824
  %11 = load ptr, ptr %10, align 8
  %12 = load ptr, ptr @m01ID, align 8
  %13 = tail call double %11(ptr noundef nonnull %0, ptr noundef %1, ptr noundef %12) #6
  %14 = getelementptr inbounds i8, ptr %2, i64 8
  store double %13, ptr %14, align 8
  %15 = load ptr, ptr %0, align 8
  %16 = getelementptr inbounds i8, ptr %15, i64 824
  %17 = load ptr, ptr %16, align 8
  %18 = load ptr, ptr @m02ID, align 8
  %19 = tail call double %17(ptr noundef nonnull %0, ptr noundef %1, ptr noundef %18) #6
  %20 = getelementptr inbounds i8, ptr %2, i64 16
  store double %19, ptr %20, align 8
  %21 = load ptr, ptr %0, align 8
  %22 = getelementptr inbounds i8, ptr %21, i64 824
  %23 = load ptr, ptr %22, align 8
  %24 = load ptr, ptr @m10ID, align 8
  %25 = tail call double %23(ptr noundef nonnull %0, ptr noundef %1, ptr noundef %24) #6
  %26 = getelementptr inbounds i8, ptr %2, i64 24
  store double %25, ptr %26, align 8
  %27 = load ptr, ptr %0, align 8
  %28 = getelementptr inbounds i8, ptr %27, i64 824
  %29 = load ptr, ptr %28, align 8
  %30 = load ptr, ptr @m11ID, align 8
  %31 = tail call double %29(ptr noundef nonnull %0, ptr noundef %1, ptr noundef %30) #6
  %32 = getelementptr inbounds i8, ptr %2, i64 32
  store double %31, ptr %32, align 8
  %33 = load ptr, ptr %0, align 8
  %34 = getelementptr inbounds i8, ptr %33, i64 824
  %35 = load ptr, ptr %34, align 8
  %36 = load ptr, ptr @m12ID, align 8
  %37 = tail call double %35(ptr noundef nonnull %0, ptr noundef %1, ptr noundef %36) #6
  %38 = getelementptr inbounds i8, ptr %2, i64 40
  store double %37, ptr %38, align 8
  ret void
}